; ModuleID = '40/1830.c'
source_filename = "40/1830.c"
target datalayout = "e-m:e-p270:32:32-p271:32:32-p272:64:64-i64:64-f80:128-n8:16:32:64-S128"
target triple = "x86_64-pc-linux-gnu"

@.str = private unnamed_addr constant [16 x i8] c"%lf%lf%lf%lf%lf\00", align 1
@.str.1 = private unnamed_addr constant [6 x i8] c"%.4lf\00", align 1
@.str.2 = private unnamed_addr constant [14 x i8] c"Invalid input\00", align 1

; Function Attrs: noinline nounwind uwtable
define dso_local i32 @main() #0 {
  %1 = alloca i32, align 4
  %2 = alloca double, align 8
  %3 = alloca double, align 8
  %4 = alloca double, align 8
  %5 = alloca double, align 8
  %6 = alloca double, align 8
  %7 = alloca double, align 8
  %8 = alloca double, align 8
  %9 = alloca double, align 8
  store i32 0, i32* %1, align 4
  %10 = call i32 (i8*, ...) @__isoc99_scanf(i8* getelementptr inbounds ([16 x i8], [16 x i8]* @.str, i64 0, i64 0), double* %2, double* %3, double* %4, double* %5, double* %6)
  %11 = load double, double* %2, align 8
  %12 = load double, double* %3, align 8
  %13 = fadd double %11, %12
  %14 = load double, double* %4, align 8
  %15 = fadd double %13, %14
  %16 = load double, double* %5, align 8
  %17 = fadd double %15, %16
  %18 = fdiv double %17, 2.000000e+00
  store double %18, double* %8, align 8
  %19 = load double, double* %8, align 8
  %20 = load double, double* %2, align 8
  %21 = fsub double %19, %20
  %22 = load double, double* %8, align 8
  %23 = load double, double* %3, align 8
  %24 = fsub double %22, %23
  %25 = fmul double %21, %24
  %26 = load double, double* %8, align 8
  %27 = load double, double* %4, align 8
  %28 = fsub double %26, %27
  %29 = fmul double %25, %28
  %30 = load double, double* %8, align 8
  %31 = load double, double* %5, align 8
  %32 = fsub double %30, %31
  %33 = fmul double %29, %32
  %34 = load double, double* %2, align 8
  %35 = load double, double* %3, align 8
  %36 = fmul double %34, %35
  %37 = load double, double* %4, align 8
  %38 = fmul double %36, %37
  %39 = load double, double* %5, align 8
  %40 = fmul double %38, %39
  %41 = load double, double* %6, align 8
  %42 = fmul double %41, 0x400921FB4D12D84A
  %43 = fdiv double %42, 3.600000e+02
  %44 = call double @cos(double %43) #3
  %45 = fmul double %40, %44
  %46 = load double, double* %6, align 8
  %47 = fmul double %46, 0x400921FB4D12D84A
  %48 = fdiv double %47, 3.600000e+02
  %49 = call double @cos(double %48) #3
  %50 = fmul double %45, %49
  %51 = fsub double %33, %50
  %52 = call double @sqrt(double %51) #3
  store double %52, double* %9, align 8
  %53 = load double, double* %8, align 8
  %54 = load double, double* %2, align 8
  %55 = fsub double %53, %54
  %56 = load double, double* %8, align 8
  %57 = load double, double* %3, align 8
  %58 = fsub double %56, %57
  %59 = fmul double %55, %58
  %60 = load double, double* %8, align 8
  %61 = load double, double* %4, align 8
  %62 = fsub double %60, %61
  %63 = fmul double %59, %62
  %64 = load double, double* %8, align 8
  %65 = load double, double* %5, align 8
  %66 = fsub double %64, %65
  %67 = fmul double %63, %66
  %68 = load double, double* %2, align 8
  %69 = load double, double* %3, align 8
  %70 = fmul double %68, %69
  %71 = load double, double* %4, align 8
  %72 = fmul double %70, %71
  %73 = load double, double* %5, align 8
  %74 = fmul double %72, %73
  %75 = load double, double* %6, align 8
  %76 = fmul double %75, 0x400921FB4D12D84A
  %77 = fdiv double %76, 3.600000e+02
  %78 = call double @cos(double %77) #3
  %79 = fmul double %74, %78
  %80 = load double, double* %6, align 8
  %81 = fmul double %80, 0x400921FB4D12D84A
  %82 = fdiv double %81, 3.600000e+02
  %83 = call double @cos(double %82) #3
  %84 = fmul double %79, %83
  %85 = fsub double %67, %84
  store double %85, double* %7, align 8
  %86 = load double, double* %7, align 8
  %87 = fcmp ogt double %86, 0.000000e+00
  br i1 %87, label %88, label %91

88:                                               ; preds = %0
  %89 = load double, double* %9, align 8
  %90 = call i32 (i8*, ...) @printf(i8* getelementptr inbounds ([6 x i8], [6 x i8]* @.str.1, i64 0, i64 0), double %89)
  br label %97

91:                                               ; preds = %0
  %92 = load double, double* %7, align 8
  %93 = fcmp olt double %92, 0.000000e+00
  br i1 %93, label %94, label %96

94:                                               ; preds = %91
  %95 = call i32 (i8*, ...) @printf(i8* getelementptr inbounds ([14 x i8], [14 x i8]* @.str.2, i64 0, i64 0))
  br label %96

96:                                               ; preds = %94, %91
  br label %97

97:                                               ; preds = %96, %88
  ret i32 0
}

declare dso_local i32 @__isoc99_scanf(i8*, ...) #1

; Function Attrs: nounwind
declare dso_local double @sqrt(double) #2

; Function Attrs: nounwind
declare dso_local double @cos(double) #2

declare dso_local i32 @printf(i8*, ...) #1


!llvm.module.flags = !{!0}
!llvm.ident = !{!1}

!0 = !{i32 1, !"wchar_size", i32 4}
!1 = !{!"clang version 10.0.0-4ubuntu1 "}
